target datalayout = "e-m:e-p270:32:32-p271:32:32-p272:64:64-i64:64-i128:128-f80:128-n8:16:32:64-S128"
target triple = "x86_64-unknown-linux-gnu"

%"class.std::set.0" = type { %"class.std::_Rb_tree.1" }
%"class.std::_Rb_tree.1" = type { %"struct.std::_Rb_tree<QuantLib::Observer *, QuantLib::Observer *, std::_Identity<QuantLib::Observer *>, std::less<QuantLib::Observer *>>::_Rb_tree_impl" }
%"struct.std::_Rb_tree<QuantLib::Observer *, QuantLib::Observer *, std::_Identity<QuantLib::Observer *>, std::less<QuantLib::Observer *>>::_Rb_tree_impl" = type { [8 x i8], %"struct.std::_Rb_tree_header" }
%"struct.std::_Rb_tree_header" = type { %"struct.std::_Rb_tree_node_base", i64 }
%"struct.std::_Rb_tree_node_base" = type { i32, ptr, ptr, ptr }
%"class.boost::detail::shared_count" = type { ptr }
%"class.QuantLib::Observable" = type { ptr, %"class.std::set.0" }
%"class.QuantLib::Handle" = type { %"class.boost::shared_ptr.35" }
%"class.boost::shared_ptr.35" = type { ptr, %"class.boost::detail::shared_count" }
%"class.QuantLib::TermStructureConsistentModel" = type { ptr, %"class.QuantLib::Handle", %"class.QuantLib::Observable" }
%"class.QuantLib::DayCounter" = type { %"class.boost::shared_ptr.17" }
%"class.boost::shared_ptr.17" = type { ptr, %"class.boost::detail::shared_count" }
%"class.boost::shared_ptr.44" = type { ptr, %"class.boost::detail::shared_count" }
%"class.QuantLib::InterestRate" = type { double, %"class.QuantLib::DayCounter", i32, i8, double }
%"class.boost::detail::sp_counted_base" = type { ptr, i32, i32 }

@.str.7 = private unnamed_addr constant [8 x i8] c"px != 0\00", align 1
@.str.8 = private unnamed_addr constant [102 x i8] c"generated/home/dtcxzyw/WorkSpace/SDK/vcpkg/installed/x64-linux/include/boost/smart_ptr/shared_ptr.hpp\00", align 1
@__PRETTY_FUNCTION__._ZNK5boost10shared_ptrIN8QuantLib18YieldTermStructureEEptEv = private unnamed_addr constant [153 x i8] c"typename boost::detail::sp_member_access<T>::type boost::shared_ptr<QuantLib::YieldTermStructure>::operator->() const [T = QuantLib::YieldTermStructure]\00", align 1

; Function Attrs: mustprogress uwtable
define linkonce_odr void @_ZN5boost6detail15sp_counted_base12weak_releaseEv(ptr noundef nonnull align 8 dereferenceable(16) %this) #2 comdat align 2 {
entry:
  %this.addr = alloca ptr, align 8
  store ptr %this, ptr %this.addr, align 8, !tbaa !3
  %this1 = load ptr, ptr %this.addr, align 8
  %weak_count_ = getelementptr inbounds nuw %"class.boost::detail::sp_counted_base", ptr %this1, i32 0, i32 2
  %call = call noundef i32 @_ZN5boost6detail16atomic_decrementEPj(ptr noundef %weak_count_)
  %cmp = icmp eq i32 %call, 1
  br i1 %cmp, label %if.then, label %if.end

if.then:                                          ; preds = %entry
  %vtable = load ptr, ptr %this1, align 8, !tbaa !12
  %vfn = getelementptr inbounds ptr, ptr %vtable, i64 3
  %0 = load ptr, ptr %vfn, align 8
  call void %0(ptr noundef nonnull align 8 dereferenceable(16) %this1)
  br label %if.end

if.end:                                           ; preds = %if.then, %entry
  ret void
}

; Function Attrs: inlinehint mustprogress nounwind uwtable
define linkonce_odr noundef i32 @_ZN5boost6detail16atomic_decrementEPj(ptr noundef %pw) #5 comdat {
entry:
  %pw.addr = alloca ptr, align 8
  %.atomictmp = alloca i32, align 4
  %atomic-temp = alloca i32, align 4
  store ptr %pw, ptr %pw.addr, align 8, !tbaa !3
  %0 = load ptr, ptr %pw.addr, align 8, !tbaa !3
  store i32 1, ptr %.atomictmp, align 4, !tbaa !81
  %1 = load i32, ptr %.atomictmp, align 4
  %2 = atomicrmw sub ptr %0, i32 %1 acq_rel, align 4
  store i32 %2, ptr %atomic-temp, align 4
  %3 = load i32, ptr %atomic-temp, align 4, !tbaa !81
  ret i32 %3
}

; Function Attrs: mustprogress uwtable
define linkonce_odr void @_ZN5boost6detail15sp_counted_base7releaseEv(ptr noundef nonnull align 8 dereferenceable(16) %this) #2 comdat align 2 {
entry:
  %this.addr = alloca ptr, align 8
  store ptr %this, ptr %this.addr, align 8, !tbaa !3
  %this1 = load ptr, ptr %this.addr, align 8
  %use_count_ = getelementptr inbounds nuw %"class.boost::detail::sp_counted_base", ptr %this1, i32 0, i32 1
  %call = call noundef i32 @_ZN5boost6detail16atomic_decrementEPj(ptr noundef %use_count_)
  %cmp = icmp eq i32 %call, 1
  br i1 %cmp, label %if.then, label %if.end

if.then:                                          ; preds = %entry
  %vtable = load ptr, ptr %this1, align 8, !tbaa !12
  %vfn = getelementptr inbounds ptr, ptr %vtable, i64 2
  %0 = load ptr, ptr %vfn, align 8
  call void %0(ptr noundef nonnull align 8 dereferenceable(16) %this1)
  call void @_ZN5boost6detail15sp_counted_base12weak_releaseEv(ptr noundef nonnull align 8 dereferenceable(16) %this1)
  br label %if.end

if.end:                                           ; preds = %if.then, %entry
  ret void
}

; Function Attrs: mustprogress nounwind uwtable
define linkonce_odr void @_ZN5boost6detail12shared_countD2Ev(ptr noundef nonnull align 8 dereferenceable(8) %this) unnamed_addr #1 comdat align 2 personality ptr @__gxx_personality_v0 {
entry:
  %this.addr = alloca ptr, align 8
  store ptr %this, ptr %this.addr, align 8, !tbaa !3
  %this1 = load ptr, ptr %this.addr, align 8
  %pi_ = getelementptr inbounds nuw %"class.boost::detail::shared_count", ptr %this1, i32 0, i32 0
  %0 = load ptr, ptr %pi_, align 8, !tbaa !161
  %cmp = icmp ne ptr %0, null
  br i1 %cmp, label %if.then, label %if.end

if.then:                                          ; preds = %entry
  %pi_2 = getelementptr inbounds nuw %"class.boost::detail::shared_count", ptr %this1, i32 0, i32 0
  %1 = load ptr, ptr %pi_2, align 8, !tbaa !161
  invoke void @_ZN5boost6detail15sp_counted_base7releaseEv(ptr noundef nonnull align 8 dereferenceable(16) %1)
          to label %invoke.cont unwind label %terminate.lpad

invoke.cont:                                      ; preds = %if.then
  br label %if.end

if.end:                                           ; preds = %invoke.cont, %entry
  ret void

terminate.lpad:                                   ; preds = %if.then
  %2 = landingpad { ptr, i32 }
          catch ptr null
  %3 = extractvalue { ptr, i32 } %2, 0
  call void @__clang_call_terminate(ptr %3) #24
  unreachable
}

; Function Attrs: inlinehint mustprogress nounwind uwtable
define linkonce_odr void @_ZN5boost10shared_ptrIN8QuantLib10DayCounter4ImplEED2Ev(ptr noundef nonnull align 8 dereferenceable(16) %this) unnamed_addr #5 comdat align 2 {
entry:
  %this.addr = alloca ptr, align 8
  store ptr %this, ptr %this.addr, align 8, !tbaa !3
  %this1 = load ptr, ptr %this.addr, align 8
  %pn = getelementptr inbounds nuw %"class.boost::shared_ptr.17", ptr %this1, i32 0, i32 1
  call void @_ZN5boost6detail12shared_countD2Ev(ptr noundef nonnull align 8 dereferenceable(8) %pn) #17
  ret void
}

; Function Attrs: inlinehint mustprogress nounwind uwtable
define linkonce_odr void @_ZN8QuantLib10DayCounterD2Ev(ptr noundef nonnull align 8 dereferenceable(16) %this) unnamed_addr #5 comdat align 2 {
entry:
  %this.addr = alloca ptr, align 8
  store ptr %this, ptr %this.addr, align 8, !tbaa !3
  %this1 = load ptr, ptr %this.addr, align 8
  %impl_ = getelementptr inbounds nuw %"class.QuantLib::DayCounter", ptr %this1, i32 0, i32 0
  call void @_ZN5boost10shared_ptrIN8QuantLib10DayCounter4ImplEED2Ev(ptr noundef nonnull align 8 dereferenceable(16) %impl_) #17
  ret void
}

; Function Attrs: inlinehint mustprogress nounwind uwtable
define linkonce_odr void @_ZN8QuantLib12InterestRateD2Ev(ptr noundef nonnull align 8 dereferenceable(40) %this) unnamed_addr #5 comdat align 2 {
entry:
  %this.addr = alloca ptr, align 8
  store ptr %this, ptr %this.addr, align 8, !tbaa !3
  %this1 = load ptr, ptr %this.addr, align 8
  %dc_ = getelementptr inbounds nuw %"class.QuantLib::InterestRate", ptr %this1, i32 0, i32 1
  call void @_ZN8QuantLib10DayCounterD2Ev(ptr noundef nonnull align 8 dereferenceable(16) %dc_) #17
  ret void
}

; Function Attrs: mustprogress nounwind uwtable
define linkonce_odr noundef double @_ZNK8QuantLib12InterestRatecvdEv(ptr noundef nonnull align 8 dereferenceable(40) %this) #1 comdat align 2 {
entry:
  %this.addr = alloca ptr, align 8
  store ptr %this, ptr %this.addr, align 8, !tbaa !3
  %this1 = load ptr, ptr %this.addr, align 8
  %r_ = getelementptr inbounds nuw %"class.QuantLib::InterestRate", ptr %this1, i32 0, i32 0
  %0 = load double, ptr %r_, align 8, !tbaa !87
  ret double %0
}

; Function Attrs: mustprogress uwtable
define linkonce_odr noundef ptr @_ZNK5boost10shared_ptrIN8QuantLib18YieldTermStructureEEptEv(ptr noundef nonnull align 8 dereferenceable(16) %this) #2 comdat align 2 {
entry:
  %this.addr = alloca ptr, align 8
  store ptr %this, ptr %this.addr, align 8, !tbaa !3
  %this1 = load ptr, ptr %this.addr, align 8
  %px = getelementptr inbounds nuw %"class.boost::shared_ptr.44", ptr %this1, i32 0, i32 0
  %0 = load ptr, ptr %px, align 8, !tbaa !75
  %cmp = icmp ne ptr %0, null
  %lnot = xor i1 %cmp, true
  %lnot2 = xor i1 %lnot, true
  %conv = zext i1 %lnot2 to i64
  %expval = call i64 @llvm.expect.i64(i64 %conv, i64 1)
  %tobool = icmp ne i64 %expval, 0
  br i1 %tobool, label %cond.true, label %cond.false

cond.true:                                        ; preds = %entry
  br label %cond.end

cond.false:                                       ; preds = %entry
  call void @_ZN5boost16assertion_failedEPKcS1_S1_l(ptr noundef @.str.7, ptr noundef @__PRETTY_FUNCTION__._ZNK5boost10shared_ptrIN8QuantLib18YieldTermStructureEEptEv, ptr noundef @.str.8, i64 noundef 784)
  br label %cond.end

cond.end:                                         ; preds = %cond.false, %cond.true
  %px3 = getelementptr inbounds nuw %"class.boost::shared_ptr.44", ptr %this1, i32 0, i32 0
  %1 = load ptr, ptr %px3, align 8, !tbaa !75
  ret ptr %1
}

; Function Attrs: mustprogress nounwind uwtable
define linkonce_odr noundef nonnull align 8 dereferenceable(16) ptr @_ZNK8QuantLib28TermStructureConsistentModel13termStructureEv(ptr noundef nonnull align 8 dereferenceable(24) %this) #1 comdat align 2 {
entry:
  %this.addr = alloca ptr, align 8
  store ptr %this, ptr %this.addr, align 8, !tbaa !3
  %this1 = load ptr, ptr %this.addr, align 8
  %termStructure_ = getelementptr inbounds nuw %"class.QuantLib::TermStructureConsistentModel", ptr %this1, i32 0, i32 1
  ret ptr %termStructure_
}

; Function Attrs: mustprogress uwtable
define noundef double @_ZNK8QuantLib20GeneralizedHullWhite1AEdd(ptr noundef nonnull align 8 dereferenceable(400) %this, double noundef %t, double noundef %T) unnamed_addr #2 align 2 personality ptr @__gxx_personality_v0 {
entry:
  %this.addr = alloca ptr, align 8
  %t.addr = alloca double, align 8
  %T.addr = alloca double, align 8
  %discount1 = alloca double, align 8
  %discount2 = alloca double, align 8
  %forward = alloca double, align 8
  %ref.tmp = alloca %"class.QuantLib::InterestRate", align 8
  %exn.slot = alloca ptr, align 8
  %ehselector.slot = alloca i32, align 4
  %BtT = alloca double, align 8
  %Vr = alloca double, align 8
  %AtT = alloca double, align 8
  store ptr %this, ptr %this.addr, align 8, !tbaa !3
  store double %t, ptr %t.addr, align 8, !tbaa !16
  store double %T, ptr %T.addr, align 8, !tbaa !16
  %this1 = load ptr, ptr %this.addr, align 8
  call void @llvm.lifetime.start.p0(i64 8, ptr %discount1) #17
  %add.ptr = getelementptr inbounds i8, ptr %this1, i64 88
  %call = call noundef nonnull align 8 dereferenceable(16) ptr @_ZNK8QuantLib28TermStructureConsistentModel13termStructureEv(ptr noundef nonnull align 8 dereferenceable(24) %add.ptr)
  %call2 = call noundef nonnull align 8 dereferenceable(16) ptr @_ZNK8QuantLib6HandleINS_18YieldTermStructureEEptEv(ptr noundef nonnull align 8 dereferenceable(16) %call)
  %call3 = call noundef ptr @_ZNK5boost10shared_ptrIN8QuantLib18YieldTermStructureEEptEv(ptr noundef nonnull align 8 dereferenceable(16) %call2)
  %0 = load double, ptr %t.addr, align 8, !tbaa !16
  %call4 = call noundef double @_ZNK8QuantLib18YieldTermStructure8discountEdb(ptr noundef nonnull align 8 dereferenceable(152) %call3, double noundef %0, i1 noundef zeroext false)
  store double %call4, ptr %discount1, align 8, !tbaa !16
  call void @llvm.lifetime.start.p0(i64 8, ptr %discount2) #17
  %add.ptr5 = getelementptr inbounds i8, ptr %this1, i64 88
  %call6 = call noundef nonnull align 8 dereferenceable(16) ptr @_ZNK8QuantLib28TermStructureConsistentModel13termStructureEv(ptr noundef nonnull align 8 dereferenceable(24) %add.ptr5)
  %call7 = call noundef nonnull align 8 dereferenceable(16) ptr @_ZNK8QuantLib6HandleINS_18YieldTermStructureEEptEv(ptr noundef nonnull align 8 dereferenceable(16) %call6)
  %call8 = call noundef ptr @_ZNK5boost10shared_ptrIN8QuantLib18YieldTermStructureEEptEv(ptr noundef nonnull align 8 dereferenceable(16) %call7)
  %1 = load double, ptr %T.addr, align 8, !tbaa !16
  %call9 = call noundef double @_ZNK8QuantLib18YieldTermStructure8discountEdb(ptr noundef nonnull align 8 dereferenceable(152) %call8, double noundef %1, i1 noundef zeroext false)
  store double %call9, ptr %discount2, align 8, !tbaa !16
  call void @llvm.lifetime.start.p0(i64 8, ptr %forward) #17
  call void @llvm.lifetime.start.p0(i64 40, ptr %ref.tmp) #17
  %add.ptr10 = getelementptr inbounds i8, ptr %this1, i64 88
  %call11 = call noundef nonnull align 8 dereferenceable(16) ptr @_ZNK8QuantLib28TermStructureConsistentModel13termStructureEv(ptr noundef nonnull align 8 dereferenceable(24) %add.ptr10)
  %call12 = call noundef nonnull align 8 dereferenceable(16) ptr @_ZNK8QuantLib6HandleINS_18YieldTermStructureEEptEv(ptr noundef nonnull align 8 dereferenceable(16) %call11)
  %call13 = call noundef ptr @_ZNK5boost10shared_ptrIN8QuantLib18YieldTermStructureEEptEv(ptr noundef nonnull align 8 dereferenceable(16) %call12)
  %2 = load double, ptr %t.addr, align 8, !tbaa !16
  %3 = load double, ptr %t.addr, align 8, !tbaa !16
  call void @_ZNK8QuantLib18YieldTermStructure11forwardRateEddNS_11CompoundingENS_9FrequencyEb(ptr dead_on_unwind writable sret(%"class.QuantLib::InterestRate") align 8 %ref.tmp, ptr noundef nonnull align 8 dereferenceable(152) %call13, double noundef %2, double noundef %3, i32 noundef 2, i32 noundef -1, i1 noundef zeroext false)
  %call14 = invoke noundef double @_ZNK8QuantLib12InterestRatecvdEv(ptr noundef nonnull align 8 dereferenceable(40) %ref.tmp)
          to label %invoke.cont unwind label %lpad

invoke.cont:                                      ; preds = %entry
  call void @_ZN8QuantLib12InterestRateD2Ev(ptr noundef nonnull align 8 dereferenceable(40) %ref.tmp) #17
  call void @llvm.lifetime.end.p0(i64 40, ptr %ref.tmp) #17
  store double %call14, ptr %forward, align 8, !tbaa !16
  call void @llvm.lifetime.start.p0(i64 8, ptr %BtT) #17
  %4 = load double, ptr %t.addr, align 8, !tbaa !16
  %5 = load double, ptr %T.addr, align 8, !tbaa !16
  %vtable = load ptr, ptr %this1, align 8, !tbaa !12
  %vfn = getelementptr inbounds ptr, ptr %vtable, i64 11
  %6 = load ptr, ptr %vfn, align 8
  %call15 = call noundef double %6(ptr noundef nonnull align 8 dereferenceable(400) %this1, double noundef %4, double noundef %5)
  store double %call15, ptr %BtT, align 8, !tbaa !16
  call void @llvm.lifetime.start.p0(i64 8, ptr %Vr) #17
  %7 = load double, ptr %t.addr, align 8, !tbaa !16
  %call16 = call noundef double @_ZNK8QuantLib20GeneralizedHullWhite1VEdd(ptr noundef nonnull align 8 dereferenceable(400) %this1, double noundef 0.000000e+00, double noundef %7)
  store double %call16, ptr %Vr, align 8, !tbaa !16
  call void @llvm.lifetime.start.p0(i64 8, ptr %AtT) #17
  %8 = load double, ptr %discount2, align 8, !tbaa !16
  %9 = load double, ptr %discount1, align 8, !tbaa !16
  %div = fdiv double %8, %9
  %call17 = call double @log(double noundef %div) #17, !tbaa !81
  %10 = load double, ptr %BtT, align 8, !tbaa !16
  %11 = load double, ptr %forward, align 8, !tbaa !16
  %12 = call double @llvm.fmuladd.f64(double %10, double %11, double %call17)
  %13 = load double, ptr %BtT, align 8, !tbaa !16
  %mul = fmul double 5.000000e-01, %13
  %14 = load double, ptr %BtT, align 8, !tbaa !16
  %mul18 = fmul double %mul, %14
  %15 = load double, ptr %Vr, align 8, !tbaa !16
  %neg = fneg double %mul18
  %16 = call double @llvm.fmuladd.f64(double %neg, double %15, double %12)
  store double %16, ptr %AtT, align 8, !tbaa !16
  %17 = load double, ptr %AtT, align 8, !tbaa !16
  %call20 = call double @exp(double noundef %17) #17, !tbaa !81
  call void @llvm.lifetime.end.p0(i64 8, ptr %AtT) #17
  call void @llvm.lifetime.end.p0(i64 8, ptr %Vr) #17
  call void @llvm.lifetime.end.p0(i64 8, ptr %BtT) #17
  call void @llvm.lifetime.end.p0(i64 8, ptr %forward) #17
  call void @llvm.lifetime.end.p0(i64 8, ptr %discount2) #17
  call void @llvm.lifetime.end.p0(i64 8, ptr %discount1) #17
  ret double %call20

lpad:                                             ; preds = %entry
  %18 = landingpad { ptr, i32 }
          cleanup
  %19 = extractvalue { ptr, i32 } %18, 0
  store ptr %19, ptr %exn.slot, align 8
  %20 = extractvalue { ptr, i32 } %18, 1
  store i32 %20, ptr %ehselector.slot, align 4
  call void @_ZN8QuantLib12InterestRateD2Ev(ptr noundef nonnull align 8 dereferenceable(40) %ref.tmp) #17
  call void @llvm.lifetime.end.p0(i64 40, ptr %ref.tmp) #17
  call void @llvm.lifetime.end.p0(i64 8, ptr %forward) #17
  call void @llvm.lifetime.end.p0(i64 8, ptr %discount2) #17
  call void @llvm.lifetime.end.p0(i64 8, ptr %discount1) #17
  br label %eh.resume

eh.resume:                                        ; preds = %lpad
  %exn = load ptr, ptr %exn.slot, align 8
  %sel = load i32, ptr %ehselector.slot, align 4
  %lpad.val = insertvalue { ptr, i32 } poison, ptr %exn, 0
  %lpad.val21 = insertvalue { ptr, i32 } %lpad.val, i32 %sel, 1
  resume { ptr, i32 } %lpad.val21
}