; Function Attrs: mustprogress uwtable
define noundef double @_ZNK8QuantLib20GeneralizedHullWhite1AEdd(ptr noundef nonnull align 8 dereferenceable(400) %this, double noundef %t, double noundef %T) unnamed_addr #6 align 2 personality ptr @__gxx_personality_v0 {
entry:
  %ref.tmp = alloca %"class.QuantLib::InterestRate", align 8
  %termStructure_.i = getelementptr inbounds i8, ptr %this, i64 96
  %call2 = tail call noundef nonnull align 8 dereferenceable(16) ptr @_ZNK8QuantLib6HandleINS_18YieldTermStructureEEptEv(ptr noundef nonnull align 8 dereferenceable(16) %termStructure_.i)
  %0 = load ptr, ptr %call2, align 8, !tbaa !62
  %cmp.not.i = icmp eq ptr %0, null
  br i1 %cmp.not.i, label %cond.false.i, label %_ZNK5boost10shared_ptrIN8QuantLib18YieldTermStructureEEptEv.exit, !prof !44

cond.false.i:                                     ; preds = %entry
  tail call void @_ZN5boost16assertion_failedEPKcS1_S1_l(ptr noundef nonnull @.str.7, ptr noundef nonnull @__PRETTY_FUNCTION__._ZNK5boost10shared_ptrIN8QuantLib18YieldTermStructureEEptEv, ptr noundef nonnull @.str.8, i64 noundef 784)
  %.pre.i = load ptr, ptr %call2, align 8, !tbaa !62
  br label %_ZNK5boost10shared_ptrIN8QuantLib18YieldTermStructureEEptEv.exit

_ZNK5boost10shared_ptrIN8QuantLib18YieldTermStructureEEptEv.exit: ; preds = %entry, %cond.false.i
  %1 = phi ptr [ %0, %entry ], [ %.pre.i, %cond.false.i ]
  %call4 = tail call noundef double @_ZNK8QuantLib18YieldTermStructure8discountEdb(ptr noundef nonnull align 8 dereferenceable(152) %1, double noundef %t, i1 noundef zeroext false)
  %call7 = tail call noundef nonnull align 8 dereferenceable(16) ptr @_ZNK8QuantLib6HandleINS_18YieldTermStructureEEptEv(ptr noundef nonnull align 8 dereferenceable(16) %termStructure_.i)
  %2 = load ptr, ptr %call7, align 8, !tbaa !62
  %cmp.not.i9 = icmp eq ptr %2, null
  br i1 %cmp.not.i9, label %cond.false.i10, label %_ZNK5boost10shared_ptrIN8QuantLib18YieldTermStructureEEptEv.exit12, !prof !44

cond.false.i10:                                   ; preds = %_ZNK5boost10shared_ptrIN8QuantLib18YieldTermStructureEEptEv.exit
  tail call void @_ZN5boost16assertion_failedEPKcS1_S1_l(ptr noundef nonnull @.str.7, ptr noundef nonnull @__PRETTY_FUNCTION__._ZNK5boost10shared_ptrIN8QuantLib18YieldTermStructureEEptEv, ptr noundef nonnull @.str.8, i64 noundef 784)
  %.pre.i11 = load ptr, ptr %call7, align 8, !tbaa !62
  br label %_ZNK5boost10shared_ptrIN8QuantLib18YieldTermStructureEEptEv.exit12

_ZNK5boost10shared_ptrIN8QuantLib18YieldTermStructureEEptEv.exit12: ; preds = %_ZNK5boost10shared_ptrIN8QuantLib18YieldTermStructureEEptEv.exit, %cond.false.i10
  %3 = phi ptr [ %2, %_ZNK5boost10shared_ptrIN8QuantLib18YieldTermStructureEEptEv.exit ], [ %.pre.i11, %cond.false.i10 ]
  %call9 = tail call noundef double @_ZNK8QuantLib18YieldTermStructure8discountEdb(ptr noundef nonnull align 8 dereferenceable(152) %3, double noundef %T, i1 noundef zeroext false)
  call void @llvm.lifetime.start.p0(i64 40, ptr nonnull %ref.tmp) #28
  %call12 = tail call noundef nonnull align 8 dereferenceable(16) ptr @_ZNK8QuantLib6HandleINS_18YieldTermStructureEEptEv(ptr noundef nonnull align 8 dereferenceable(16) %termStructure_.i)
  %4 = load ptr, ptr %call12, align 8, !tbaa !62
  %cmp.not.i14 = icmp eq ptr %4, null
  br i1 %cmp.not.i14, label %cond.false.i15, label %_ZNK5boost10shared_ptrIN8QuantLib18YieldTermStructureEEptEv.exit17, !prof !44

cond.false.i15:                                   ; preds = %_ZNK5boost10shared_ptrIN8QuantLib18YieldTermStructureEEptEv.exit12
  tail call void @_ZN5boost16assertion_failedEPKcS1_S1_l(ptr noundef nonnull @.str.7, ptr noundef nonnull @__PRETTY_FUNCTION__._ZNK5boost10shared_ptrIN8QuantLib18YieldTermStructureEEptEv, ptr noundef nonnull @.str.8, i64 noundef 784)
  %.pre.i16 = load ptr, ptr %call12, align 8, !tbaa !62
  br label %_ZNK5boost10shared_ptrIN8QuantLib18YieldTermStructureEEptEv.exit17

_ZNK5boost10shared_ptrIN8QuantLib18YieldTermStructureEEptEv.exit17: ; preds = %_ZNK5boost10shared_ptrIN8QuantLib18YieldTermStructureEEptEv.exit12, %cond.false.i15
  %5 = phi ptr [ %4, %_ZNK5boost10shared_ptrIN8QuantLib18YieldTermStructureEEptEv.exit12 ], [ %.pre.i16, %cond.false.i15 ]
  call void @_ZNK8QuantLib18YieldTermStructure11forwardRateEddNS_11CompoundingENS_9FrequencyEb(ptr dead_on_unwind nonnull writable sret(%"class.QuantLib::InterestRate") align 8 %ref.tmp, ptr noundef nonnull align 8 dereferenceable(152) %5, double noundef %t, double noundef %t, i32 noundef 2, i32 noundef -1, i1 noundef zeroext false)
  %6 = load double, ptr %ref.tmp, align 8, !tbaa !140
  %pn.i.i.i = getelementptr inbounds nuw i8, ptr %ref.tmp, i64 16
  %7 = load ptr, ptr %pn.i.i.i, align 8, !tbaa !37
  %cmp.not.i.i.i.i = icmp eq ptr %7, null
  br i1 %cmp.not.i.i.i.i, label %_ZN8QuantLib12InterestRateD2Ev.exit, label %if.then.i.i.i.i

if.then.i.i.i.i:                                  ; preds = %_ZNK5boost10shared_ptrIN8QuantLib18YieldTermStructureEEptEv.exit17
  %use_count_.i.i.i.i.i = getelementptr inbounds nuw i8, ptr %7, i64 8
  %8 = atomicrmw sub ptr %use_count_.i.i.i.i.i, i32 1 acq_rel, align 4
  %cmp.i.i.i.i.i = icmp eq i32 %8, 1
  br i1 %cmp.i.i.i.i.i, label %if.then.i.i.i.i.i, label %_ZN8QuantLib12InterestRateD2Ev.exit

if.then.i.i.i.i.i:                                ; preds = %if.then.i.i.i.i
  %vtable.i.i.i.i.i = load ptr, ptr %7, align 8, !tbaa !35
  %vfn.i.i.i.i.i = getelementptr inbounds i8, ptr %vtable.i.i.i.i.i, i64 16
  %9 = load ptr, ptr %vfn.i.i.i.i.i, align 8
  invoke void %9(ptr noundef nonnull align 8 dereferenceable(16) %7)
          to label %.noexc.i.i.i.i unwind label %terminate.lpad.i.i.i.i

.noexc.i.i.i.i:                                   ; preds = %if.then.i.i.i.i.i
  %weak_count_.i.i.i.i.i.i = getelementptr inbounds nuw i8, ptr %7, i64 12
  %10 = atomicrmw sub ptr %weak_count_.i.i.i.i.i.i, i32 1 acq_rel, align 4
  %cmp.i.i.i.i.i.i = icmp eq i32 %10, 1
  br i1 %cmp.i.i.i.i.i.i, label %if.then.i.i.i.i.i.i, label %_ZN8QuantLib12InterestRateD2Ev.exit

if.then.i.i.i.i.i.i:                              ; preds = %.noexc.i.i.i.i
  %vtable.i.i.i.i.i.i = load ptr, ptr %7, align 8, !tbaa !35
  %vfn.i.i.i.i.i.i = getelementptr inbounds i8, ptr %vtable.i.i.i.i.i.i, i64 24
  %11 = load ptr, ptr %vfn.i.i.i.i.i.i, align 8
  invoke void %11(ptr noundef nonnull align 8 dereferenceable(16) %7)
          to label %_ZN8QuantLib12InterestRateD2Ev.exit unwind label %terminate.lpad.i.i.i.i

terminate.lpad.i.i.i.i:                           ; preds = %if.then.i.i.i.i.i.i, %if.then.i.i.i.i.i
  %12 = landingpad { ptr, i32 }
          catch ptr null
  %13 = extractvalue { ptr, i32 } %12, 0
  call void @__clang_call_terminate(ptr %13) #29
  unreachable

_ZN8QuantLib12InterestRateD2Ev.exit:              ; preds = %_ZNK5boost10shared_ptrIN8QuantLib18YieldTermStructureEEptEv.exit17, %if.then.i.i.i.i, %.noexc.i.i.i.i, %if.then.i.i.i.i.i.i
  call void @llvm.lifetime.end.p0(i64 40, ptr nonnull %ref.tmp) #28
  %vtable = load ptr, ptr %this, align 8, !tbaa !35
  %vfn = getelementptr inbounds i8, ptr %vtable, i64 88
  %14 = load ptr, ptr %vfn, align 8
  %call15 = call noundef double %14(ptr noundef nonnull align 8 dereferenceable(400) %this, double noundef %t, double noundef %T)
  %call16 = call noundef double @_ZNK8QuantLib20GeneralizedHullWhite1VEdd(ptr noundef nonnull align 8 dereferenceable(400) %this, double noundef 0.000000e+00, double noundef %t)
  %div = fdiv double %call9, %call4
  %call17 = call double @log(double noundef %div) #28, !tbaa !137
  %15 = call double @llvm.fmuladd.f64(double %call15, double %6, double %call17)
  %mul = fmul double %call15, 5.000000e-01
  %16 = fneg double %call15
  %neg = fmul double %mul, %16
  %17 = call double @llvm.fmuladd.f64(double %neg, double %call16, double %15)
  %call20 = call double @exp(double noundef %17) #28, !tbaa !137
  ret double %call20
}